target datalayout = "e-m:e-p270:32:32-p271:32:32-p272:64:64-i64:64-i128:128-f80:128-n8:16:32:64-S128"
target triple = "x86_64-pc-linux-gnu"

%class.QuickOpen = type <{ ptr, i8, [7 x i8], ptr, ptr, ptr, i64, %class.CryptData, i8, [7 x i8], i64, i64, i64, i64, i64, i64, %class.Array, i64, i64, i8, [7 x i8] }>
%class.CryptData = type { [4 x %"struct.CryptData::KDF3CacheItem"], i32, [4 x i8], [4 x %"struct.CryptData::KDF5CacheItem"], i32, i32, %class.Rijndael, [256 x i32], [256 x i8], [4 x i32], [3 x i8], [4 x i16], [4 x i8] }
%"struct.CryptData::KDF3CacheItem" = type { %class.SecPassword, [8 x i8], [16 x i8], [16 x i8], i8, [7 x i8] }
%class.SecPassword = type <{ %"class.std::vector", i8, [7 x i8] }>
%"class.std::vector" = type { %"struct.std::_Vector_base" }
%"struct.std::_Vector_base" = type { %"struct.std::_Vector_base<wchar_t, std::allocator<wchar_t>>::_Vector_impl" }
%"struct.std::_Vector_base<wchar_t, std::allocator<wchar_t>>::_Vector_impl" = type { %"struct.std::_Vector_base<wchar_t, std::allocator<wchar_t>>::_Vector_impl_data" }
%"struct.std::_Vector_base<wchar_t, std::allocator<wchar_t>>::_Vector_impl_data" = type { ptr, ptr, ptr }
%"struct.CryptData::KDF5CacheItem" = type { %class.SecPassword, [16 x i8], [32 x i8], i32, [32 x i8], [32 x i8], [4 x i8] }
%class.Rijndael = type { i8, i32, [16 x i8], [15 x [4 x [4 x i8]]] }
%class.Array = type { ptr, i64, i64, i64 }
%class.Archive = type <{ %class.File, %class.CryptData, %class.ComprDataIO, i8, [7 x i8], ptr, %class.RarTime, i32, i32, i8, [7 x i8], %class.QuickOpen, i8, [3 x i8], %struct.BaseBlock, %struct.MarkHeader, [4 x i8], %struct.MainHeader, %struct.CryptHeader, [4 x i8], %struct.FileHeader, %struct.EndArcHeader, %struct.SubBlockHeader, [4 x i8], %struct.FileHeader, %struct.CommentHeader, %struct.ProtectHeader, %struct.EAHeader, %struct.StreamHeader, [4 x i8], i64, i64, i32, i8, i8, i8, i8, i8, i8, i8, i8, i8, [3 x i8], i64, i8, i8, [16 x i8], i8, i8, i32, i64, i64, i64, i8, [3 x i8], [2048 x i32], [4 x i8] }>
%class.File = type { ptr, i64, i8, i32, i8, i8, i32, i8, i8, i8, i8, i8, i64, i8, [2048 x i32], i32, ptr }
%class.ComprDataIO = type <{ i8, [7 x i8], i64, ptr, i8, [7 x i8], i64, ptr, i64, ptr, i64, i64, i8, i8, i8, i8, [4 x i8], ptr, ptr, ptr, ptr, ptr, ptr, ptr, i32, i32, i8, i8, i8, [5 x i8], i64, i64, i64, i64, i64, i64, i64, %class.DataHash, %class.DataHash, %class.DataHash, i8, i8, [6 x i8] }>
%class.DataHash = type { i32, i32, ptr }
%class.RarTime = type { i64 }
%struct.BaseBlock = type { i32, i32, i32, i32, i8 }
%struct.MarkHeader = type { [8 x i8], i32 }
%struct.MainHeader = type { %struct.BaseBlock, i16, i32, i8, i8, i8, i64, i64, i64, i64, i64, %"class.std::__cxx11::basic_string", %class.RarTime }
%"class.std::__cxx11::basic_string" = type { %"struct.std::__cxx11::basic_string<wchar_t>::_Alloc_hider", i64, %union.anon }
%"struct.std::__cxx11::basic_string<wchar_t>::_Alloc_hider" = type { ptr }
%union.anon = type { i64, [8 x i8] }
%struct.CryptHeader = type { %struct.BaseBlock, i8, i32, [16 x i8], [8 x i8] }
%struct.EndArcHeader = type { %struct.BaseBlock, i32, i32, i8, i8, i8, i8 }
%struct.SubBlockHeader = type <{ %struct.BlockHeader, i16, i8, i8 }>
%struct.BlockHeader = type { %struct.BaseBlock, i32 }
%struct.FileHeader = type { %struct.BlockHeader, i8, i32, i8, %union.anon.0, [2048 x i32], %class.Array, %class.RarTime, %class.RarTime, %class.RarTime, i64, i64, i64, %struct.HashValue, i32, i8, i8, i8, i8, i32, i8, [16 x i8], [16 x i8], i8, [8 x i8], i8, [32 x i8], i32, i8, i8, i8, i8, i64, i8, i8, i8, i32, i32, [2048 x i32], i8, i8, i8, i8, [256 x i8], [256 x i8], i32, i32 }
%union.anon.0 = type { i32 }
%struct.HashValue = type { i32, %union.anon.1 }
%union.anon.1 = type { i32, [28 x i8] }
%struct.CommentHeader = type <{ %struct.BaseBlock, i16, i8, i8, i16, [2 x i8] }>
%struct.ProtectHeader = type { %struct.BlockHeader, i8, i16, i32, [8 x i8] }
%struct.EAHeader = type { %struct.SubBlockHeader.base, i32, i8, i8, i32 }
%struct.SubBlockHeader.base = type <{ %struct.BlockHeader, i16, i8 }>
%struct.StreamHeader = type <{ %struct.SubBlockHeader.base, i8, i32, i8, i8, [2 x i8], i32, i16, [260 x i8], [2 x i8] }>
%class.CommandData = type { %class.RAROptions, i8, i8, i32, i8, [2064 x i32], [2048 x i32], %class.StringList, %class.StringList, %class.StringList, %class.StringList, %class.StringList, %class.SecPassword, %"class.std::vector.3" }
%class.RAROptions = type { i32, i32, i8, i8, i8, i64, [2048 x i32], [2048 x i32], i32, i8, [2048 x i32], [2048 x i32], i32, i32, i32, i32, [2048 x i32], [2048 x i32], i8, i8, i8, [2048 x i32], i32, i32, i32, i32, i32, i32, i32, i32, i8, i8, i8, i8, i8, i32, i32, i8, i8, i8, i8, i8, i32, i32, i64, i32, i8, i8, i8, i32, i32, i8, i8, i8, i8, i32, i32, i8, i8, i8, i8, [128 x i32], [128 x i32], i8, i8, i8, i8, i8, %class.RarTime, %class.RarTime, %class.RarTime, i8, i8, i8, %class.RarTime, %class.RarTime, %class.RarTime, i8, i8, i8, i64, i64, i8, i8, i8, [16 x %struct.FilterMode], [2048 x i32], i32, i32, i32, i32, i32, i32, i8, [2048 x i32], i32, [2048 x i32], i32, i32, i64, ptr, ptr, ptr }
%struct.FilterMode = type { i32, i32, i32 }
%class.StringList = type { %class.Array.2, i64, i64, [16 x i64], i64 }
%class.Array.2 = type { ptr, i64, i64, i64 }
%"class.std::vector.3" = type { %"struct.std::_Vector_base.4" }
%"struct.std::_Vector_base.4" = type { %"struct.std::_Vector_base<long, std::allocator<long>>::_Vector_impl" }
%"struct.std::_Vector_base<long, std::allocator<long>>::_Vector_impl" = type { %"struct.std::_Vector_base<long, std::allocator<long>>::_Vector_impl_data" }
%"struct.std::_Vector_base<long, std::allocator<long>>::_Vector_impl_data" = type { ptr, ptr, ptr }

@.str = private unnamed_addr constant [3 x i32] [i32 81, i32 79, i32 0], align 4

; Function Attrs: mustprogress nounwind uwtable
define linkonce_odr void @_ZN5ArrayIhE5ResetEv(ptr noundef nonnull align 8 dereferenceable(32) %0) #2 comdat align 2 {
  %2 = alloca ptr, align 8
  store ptr %0, ptr %2, align 8
  %3 = load ptr, ptr %2, align 8
  %4 = getelementptr inbounds %class.Array, ptr %3, i32 0, i32 0
  %5 = load ptr, ptr %4, align 8
  %6 = icmp ne ptr %5, null
  br i1 %6, label %7, label %11

7:                                                ; preds = %1
  %8 = getelementptr inbounds %class.Array, ptr %3, i32 0, i32 0
  %9 = load ptr, ptr %8, align 8
  call void @free(ptr noundef %9) #10
  %10 = getelementptr inbounds %class.Array, ptr %3, i32 0, i32 0
  store ptr null, ptr %10, align 8
  br label %11

11:                                               ; preds = %7, %1
  %12 = getelementptr inbounds %class.Array, ptr %3, i32 0, i32 1
  store i64 0, ptr %12, align 8
  %13 = getelementptr inbounds %class.Array, ptr %3, i32 0, i32 2
  store i64 0, ptr %13, align 8
  ret void
}

; Function Attrs: mustprogress nounwind uwtable
define linkonce_odr noundef zeroext i1 @_ZN11SecPassword5IsSetEv(ptr noundef nonnull align 8 dereferenceable(25) %0) #2 comdat align 2 {
  %2 = alloca ptr, align 8
  store ptr %0, ptr %2, align 8
  %3 = load ptr, ptr %2, align 8
  %4 = getelementptr inbounds %class.SecPassword, ptr %3, i32 0, i32 1
  %5 = load i8, ptr %4, align 8
  %6 = trunc i8 %5 to i1
  ret i1 %6
}

; Function Attrs: mustprogress nounwind uwtable
define linkonce_odr noundef ptr @_ZN7Archive14GetCommandDataEv(ptr noundef nonnull align 8 dereferenceable(57108) %0) #2 comdat align 2 {
  %2 = alloca ptr, align 8
  store ptr %0, ptr %2, align 8
  %3 = load ptr, ptr %2, align 8
  %4 = getelementptr inbounds %class.Archive, ptr %3, i32 0, i32 5
  %5 = load ptr, ptr %4, align 8
  ret ptr %5
}

; Function Attrs: mustprogress nounwind uwtable
define linkonce_odr noundef zeroext i1 @_ZN10FileHeader7CmpNameEPKw(ptr noundef nonnull align 8 dereferenceable(17184) %0, ptr noundef %1) #2 comdat align 2 {
  %3 = alloca ptr, align 8
  %4 = alloca ptr, align 8
  store ptr %0, ptr %3, align 8
  store ptr %1, ptr %4, align 8
  %5 = load ptr, ptr %3, align 8
  %6 = getelementptr inbounds %struct.FileHeader, ptr %5, i32 0, i32 5
  %7 = getelementptr inbounds [2048 x i32], ptr %6, i64 0, i64 0
  %8 = load ptr, ptr %4, align 8
  %9 = call i32 @wcscmp(ptr noundef %7, ptr noundef %8) #14
  %10 = icmp eq i32 %9, 0
  ret i1 %10
}

; Function Attrs: mustprogress nounwind uwtable
define linkonce_odr noundef i32 @_ZN7Archive13GetHeaderTypeEv(ptr noundef nonnull align 8 dereferenceable(57108) %0) #2 comdat align 2 {
  %2 = alloca ptr, align 8
  store ptr %0, ptr %2, align 8
  %3 = load ptr, ptr %2, align 8
  %4 = getelementptr inbounds %class.Archive, ptr %3, i32 0, i32 8
  %5 = load i32, ptr %4, align 4
  ret i32 %5
}

; Function Attrs: mustprogress nounwind uwtable
define linkonce_odr void @_ZN7Archive16SetProhibitQOpenEb(ptr noundef nonnull align 8 dereferenceable(57108) %0, i1 noundef zeroext %1) #2 comdat align 2 {
  %3 = alloca ptr, align 8
  %4 = alloca i8, align 1
  store ptr %0, ptr %3, align 8
  %5 = zext i1 %1 to i8
  store i8 %5, ptr %4, align 1
  %6 = load ptr, ptr %3, align 8
  %7 = load i8, ptr %4, align 1
  %8 = trunc i8 %7 to i1
  %9 = getelementptr inbounds %class.Archive, ptr %6, i32 0, i32 12
  %10 = zext i1 %8 to i8
  store i8 %10, ptr %9, align 8
  ret void
}

; Function Attrs: mustprogress uwtable
define void @_ZN9QuickOpen4LoadEm(ptr noundef nonnull align 8 dereferenceable(2673) %0, i64 noundef %1) #0 align 2 {
  %3 = alloca ptr, align 8
  %4 = alloca i64, align 8
  %5 = alloca i64, align 8
  %6 = alloca i64, align 8
  %7 = alloca ptr, align 8
  store ptr %0, ptr %3, align 8
  store i64 %1, ptr %4, align 8
  %8 = load ptr, ptr %3, align 8
  %9 = getelementptr inbounds %class.QuickOpen, ptr %8, i32 0, i32 8
  %10 = load i8, ptr %9, align 8
  %11 = trunc i8 %10 to i1
  br i1 %11, label %81, label %12

12:                                               ; preds = %2
  %13 = getelementptr inbounds %class.QuickOpen, ptr %8, i32 0, i32 0
  %14 = load ptr, ptr %13, align 8
  %15 = load ptr, ptr %14, align 8
  %16 = getelementptr inbounds ptr, ptr %15, i64 6
  %17 = load ptr, ptr %16, align 8
  %18 = call noundef i64 %17(ptr noundef nonnull align 8 dereferenceable(57108) %14)
  %19 = getelementptr inbounds %class.QuickOpen, ptr %8, i32 0, i32 18
  store i64 %18, ptr %19, align 8
  %20 = getelementptr inbounds %class.QuickOpen, ptr %8, i32 0, i32 19
  store i8 0, ptr %20, align 8
  %21 = getelementptr inbounds %class.QuickOpen, ptr %8, i32 0, i32 18
  %22 = load i64, ptr %21, align 8
  store i64 %22, ptr %5, align 8
  %23 = getelementptr inbounds %class.QuickOpen, ptr %8, i32 0, i32 0
  %24 = load ptr, ptr %23, align 8
  %25 = load i64, ptr %4, align 8
  %26 = load ptr, ptr %24, align 8
  %27 = getelementptr inbounds ptr, ptr %26, i64 5
  %28 = load ptr, ptr %27, align 8
  call void %28(ptr noundef nonnull align 8 dereferenceable(57108) %24, i64 noundef %25, i32 noundef 0)
  %29 = getelementptr inbounds %class.QuickOpen, ptr %8, i32 0, i32 0
  %30 = load ptr, ptr %29, align 8
  call void @_ZN7Archive16SetProhibitQOpenEb(ptr noundef nonnull align 8 dereferenceable(57108) %30, i1 noundef zeroext true)
  %31 = getelementptr inbounds %class.QuickOpen, ptr %8, i32 0, i32 0
  %32 = load ptr, ptr %31, align 8
  %33 = call noundef i64 @_ZN7Archive10ReadHeaderEv(ptr noundef nonnull align 8 dereferenceable(57108) %32)
  store i64 %33, ptr %6, align 8
  %34 = getelementptr inbounds %class.QuickOpen, ptr %8, i32 0, i32 0
  %35 = load ptr, ptr %34, align 8
  call void @_ZN7Archive16SetProhibitQOpenEb(ptr noundef nonnull align 8 dereferenceable(57108) %35, i1 noundef zeroext false)
  %36 = load i64, ptr %6, align 8
  %37 = icmp eq i64 %36, 0
  br i1 %37, label %48, label %38

38:                                               ; preds = %12
  %39 = getelementptr inbounds %class.QuickOpen, ptr %8, i32 0, i32 0
  %40 = load ptr, ptr %39, align 8
  %41 = call noundef i32 @_ZN7Archive13GetHeaderTypeEv(ptr noundef nonnull align 8 dereferenceable(57108) %40)
  %42 = icmp ne i32 %41, 3
  br i1 %42, label %48, label %43

43:                                               ; preds = %38
  %44 = getelementptr inbounds %class.QuickOpen, ptr %8, i32 0, i32 0
  %45 = load ptr, ptr %44, align 8
  %46 = getelementptr inbounds %class.Archive, ptr %45, i32 0, i32 24
  %47 = call noundef zeroext i1 @_ZN10FileHeader7CmpNameEPKw(ptr noundef nonnull align 8 dereferenceable(17184) %46, ptr noundef @.str)
  br i1 %47, label %55, label %48

48:                                               ; preds = %43, %38, %12
  %49 = getelementptr inbounds %class.QuickOpen, ptr %8, i32 0, i32 0
  %50 = load ptr, ptr %49, align 8
  %51 = load i64, ptr %5, align 8
  %52 = load ptr, ptr %50, align 8
  %53 = getelementptr inbounds ptr, ptr %52, i64 5
  %54 = load ptr, ptr %53, align 8
  call void %54(ptr noundef nonnull align 8 dereferenceable(57108) %50, i64 noundef %51, i32 noundef 0)
  br label %135

55:                                               ; preds = %43
  %56 = getelementptr inbounds %class.QuickOpen, ptr %8, i32 0, i32 0
  %57 = load ptr, ptr %56, align 8
  %58 = getelementptr inbounds %class.Archive, ptr %57, i32 0, i32 30
  %59 = load i64, ptr %58, align 8
  %60 = getelementptr inbounds %class.QuickOpen, ptr %8, i32 0, i32 10
  store i64 %59, ptr %60, align 8
  %61 = getelementptr inbounds %class.QuickOpen, ptr %8, i32 0, i32 0
  %62 = load ptr, ptr %61, align 8
  %63 = load ptr, ptr %62, align 8
  %64 = getelementptr inbounds ptr, ptr %63, i64 6
  %65 = load ptr, ptr %64, align 8
  %66 = call noundef i64 %65(ptr noundef nonnull align 8 dereferenceable(57108) %62)
  %67 = getelementptr inbounds %class.QuickOpen, ptr %8, i32 0, i32 11
  store i64 %66, ptr %67, align 8
  %68 = getelementptr inbounds %class.QuickOpen, ptr %8, i32 0, i32 0
  %69 = load ptr, ptr %68, align 8
  %70 = getelementptr inbounds %class.Archive, ptr %69, i32 0, i32 24
  %71 = getelementptr inbounds %struct.FileHeader, ptr %70, i32 0, i32 11
  %72 = load i64, ptr %71, align 8
  %73 = getelementptr inbounds %class.QuickOpen, ptr %8, i32 0, i32 12
  store i64 %72, ptr %73, align 8
  %74 = getelementptr inbounds %class.QuickOpen, ptr %8, i32 0, i32 0
  %75 = load ptr, ptr %74, align 8
  %76 = load i64, ptr %5, align 8
  %77 = load ptr, ptr %75, align 8
  %78 = getelementptr inbounds ptr, ptr %77, i64 5
  %79 = load ptr, ptr %78, align 8
  call void %79(ptr noundef nonnull align 8 dereferenceable(57108) %75, i64 noundef %76, i32 noundef 0)
  %80 = getelementptr inbounds %class.QuickOpen, ptr %8, i32 0, i32 8
  store i8 1, ptr %80, align 8
  br label %81

81:                                               ; preds = %55, %2
  %82 = getelementptr inbounds %class.QuickOpen, ptr %8, i32 0, i32 0
  %83 = load ptr, ptr %82, align 8
  %84 = getelementptr inbounds %class.Archive, ptr %83, i32 0, i32 24
  %85 = getelementptr inbounds %struct.FileHeader, ptr %84, i32 0, i32 18
  %86 = load i8, ptr %85, align 1
  %87 = trunc i8 %86 to i1
  br i1 %87, label %88, label %128

88:                                               ; preds = %81
  %89 = getelementptr inbounds %class.QuickOpen, ptr %8, i32 0, i32 0
  %90 = load ptr, ptr %89, align 8
  %91 = call noundef ptr @_ZN7Archive14GetCommandDataEv(ptr noundef nonnull align 8 dereferenceable(57108) %90)
  store ptr %91, ptr %7, align 8
  %92 = load ptr, ptr %7, align 8
  %93 = getelementptr inbounds %class.CommandData, ptr %92, i32 0, i32 12
  %94 = call noundef zeroext i1 @_ZN11SecPassword5IsSetEv(ptr noundef nonnull align 8 dereferenceable(25) %93)
  br i1 %94, label %95, label %125

95:                                               ; preds = %88
  %96 = getelementptr inbounds %class.QuickOpen, ptr %8, i32 0, i32 7
  %97 = load ptr, ptr %7, align 8
  %98 = getelementptr inbounds %class.CommandData, ptr %97, i32 0, i32 12
  %99 = getelementptr inbounds %class.QuickOpen, ptr %8, i32 0, i32 0
  %100 = load ptr, ptr %99, align 8
  %101 = getelementptr inbounds %class.Archive, ptr %100, i32 0, i32 24
  %102 = getelementptr inbounds %struct.FileHeader, ptr %101, i32 0, i32 21
  %103 = getelementptr inbounds [16 x i8], ptr %102, i64 0, i64 0
  %104 = getelementptr inbounds %class.QuickOpen, ptr %8, i32 0, i32 0
  %105 = load ptr, ptr %104, align 8
  %106 = getelementptr inbounds %class.Archive, ptr %105, i32 0, i32 24
  %107 = getelementptr inbounds %struct.FileHeader, ptr %106, i32 0, i32 22
  %108 = getelementptr inbounds [16 x i8], ptr %107, i64 0, i64 0
  %109 = getelementptr inbounds %class.QuickOpen, ptr %8, i32 0, i32 0
  %110 = load ptr, ptr %109, align 8
  %111 = getelementptr inbounds %class.Archive, ptr %110, i32 0, i32 24
  %112 = getelementptr inbounds %struct.FileHeader, ptr %111, i32 0, i32 27
  %113 = load i32, ptr %112, align 4
  %114 = getelementptr inbounds %class.QuickOpen, ptr %8, i32 0, i32 0
  %115 = load ptr, ptr %114, align 8
  %116 = getelementptr inbounds %class.Archive, ptr %115, i32 0, i32 24
  %117 = getelementptr inbounds %struct.FileHeader, ptr %116, i32 0, i32 26
  %118 = getelementptr inbounds [32 x i8], ptr %117, i64 0, i64 0
  %119 = getelementptr inbounds %class.QuickOpen, ptr %8, i32 0, i32 0
  %120 = load ptr, ptr %119, align 8
  %121 = getelementptr inbounds %class.Archive, ptr %120, i32 0, i32 24
  %122 = getelementptr inbounds %struct.FileHeader, ptr %121, i32 0, i32 24
  %123 = getelementptr inbounds [8 x i8], ptr %122, i64 0, i64 0
  %124 = call noundef zeroext i1 @_ZN9CryptData12SetCryptKeysEb12CRYPT_METHODP11SecPasswordPKhS4_jPhS5_(ptr noundef nonnull align 8 dereferenceable(2516) %96, i1 noundef zeroext false, i32 noundef 5, ptr noundef %98, ptr noundef %103, ptr noundef %108, i32 noundef %113, ptr noundef %118, ptr noundef %123)
  br label %127

125:                                              ; preds = %88
  %126 = getelementptr inbounds %class.QuickOpen, ptr %8, i32 0, i32 8
  store i8 0, ptr %126, align 8
  br label %135

127:                                              ; preds = %95
  br label %128

128:                                              ; preds = %127, %81
  %129 = getelementptr inbounds %class.QuickOpen, ptr %8, i32 0, i32 13
  store i64 0, ptr %129, align 8
  %130 = getelementptr inbounds %class.QuickOpen, ptr %8, i32 0, i32 14
  store i64 0, ptr %130, align 8
  %131 = getelementptr inbounds %class.QuickOpen, ptr %8, i32 0, i32 15
  store i64 0, ptr %131, align 8
  %132 = getelementptr inbounds %class.QuickOpen, ptr %8, i32 0, i32 16
  call void @_ZN5ArrayIhE5ResetEv(ptr noundef nonnull align 8 dereferenceable(32) %132)
  %133 = getelementptr inbounds %class.QuickOpen, ptr %8, i32 0, i32 17
  store i64 0, ptr %133, align 8
  %134 = call noundef i32 @_ZN9QuickOpen10ReadBufferEv(ptr noundef nonnull align 8 dereferenceable(2673) %8)
  br label %135

135:                                              ; preds = %128, %125, %48
  ret void
}