; Function Attrs: mustprogress uwtable
define void @_ZN9QuickOpen4LoadEm(ptr noundef nonnull align 8 dereferenceable(2673) %0, i64 noundef %1) local_unnamed_addr #0 align 2 {
  %3 = getelementptr inbounds i8, ptr %0, i64 2568
  %4 = load i8, ptr %3, align 8
  %5 = trunc i8 %4 to i1
  br i1 %5, label %52, label %6

6:                                                ; preds = %2
  %7 = load ptr, ptr %0, align 8
  %8 = load ptr, ptr %7, align 8
  %9 = getelementptr inbounds i8, ptr %8, i64 48
  %10 = load ptr, ptr %9, align 8
  %11 = tail call noundef i64 %10(ptr noundef nonnull align 8 dereferenceable(57108) %7)
  %12 = getelementptr inbounds i8, ptr %0, i64 2664
  store i64 %11, ptr %12, align 8
  %13 = getelementptr inbounds i8, ptr %0, i64 2672
  store i8 0, ptr %13, align 8
  %14 = load ptr, ptr %0, align 8
  %15 = load ptr, ptr %14, align 8
  %16 = getelementptr inbounds i8, ptr %15, i64 40
  %17 = load ptr, ptr %16, align 8
  tail call void %17(ptr noundef nonnull align 8 dereferenceable(57108) %14, i64 noundef %1, i32 noundef 0)
  %18 = load ptr, ptr %0, align 8
  %19 = getelementptr inbounds i8, ptr %18, i64 13768
  store i8 1, ptr %19, align 8
  %20 = load ptr, ptr %0, align 8
  %21 = tail call noundef i64 @_ZN7Archive10ReadHeaderEv(ptr noundef nonnull align 8 dereferenceable(57108) %20)
  %22 = load ptr, ptr %0, align 8
  %23 = getelementptr inbounds i8, ptr %22, i64 13768
  store i8 0, ptr %23, align 8
  %24 = icmp eq i64 %21, 0
  %.pre = load ptr, ptr %0, align 8
  br i1 %24, label %32, label %25

25:                                               ; preds = %6
  %26 = getelementptr inbounds i8, ptr %.pre, i64 11076
  %27 = load i32, ptr %26, align 4
  %.not = icmp eq i32 %27, 3
  br i1 %.not, label %28, label %32

28:                                               ; preds = %25
  %29 = getelementptr inbounds i8, ptr %.pre, i64 31264
  %30 = tail call i32 @wcscmp(ptr noundef nonnull %29, ptr noundef nonnull @.str) #18
  %31 = icmp eq i32 %30, 0
  br i1 %31, label %36, label %32

32:                                               ; preds = %28, %25, %6
  %33 = load ptr, ptr %.pre, align 8
  %34 = getelementptr inbounds i8, ptr %33, i64 40
  %35 = load ptr, ptr %34, align 8
  tail call void %35(ptr noundef nonnull align 8 dereferenceable(57108) %.pre, i64 noundef %11, i32 noundef 0)
  br label %82

36:                                               ; preds = %28
  %37 = getelementptr inbounds i8, ptr %.pre, i64 48824
  %38 = load i64, ptr %37, align 8
  %39 = getelementptr inbounds i8, ptr %0, i64 2576
  store i64 %38, ptr %39, align 8
  %40 = load ptr, ptr %.pre, align 8
  %41 = getelementptr inbounds i8, ptr %40, i64 48
  %42 = load ptr, ptr %41, align 8
  %43 = tail call noundef i64 %42(ptr noundef nonnull align 8 dereferenceable(57108) %.pre)
  %44 = getelementptr inbounds i8, ptr %0, i64 2584
  store i64 %43, ptr %44, align 8
  %45 = load ptr, ptr %0, align 8
  %46 = getelementptr inbounds i8, ptr %45, i64 39520
  %47 = load i64, ptr %46, align 8
  %48 = getelementptr inbounds i8, ptr %0, i64 2592
  store i64 %47, ptr %48, align 8
  %49 = load ptr, ptr %45, align 8
  %50 = getelementptr inbounds i8, ptr %49, i64 40
  %51 = load ptr, ptr %50, align 8
  tail call void %51(ptr noundef nonnull align 8 dereferenceable(57108) %45, i64 noundef %11, i32 noundef 0)
  store i8 1, ptr %3, align 8
  br label %52

52:                                               ; preds = %36, %2
  %53 = load ptr, ptr %0, align 8
  %54 = getelementptr inbounds i8, ptr %53, i64 39579
  %55 = load i8, ptr %54, align 1
  %56 = trunc i8 %55 to i1
  br i1 %56, label %57, label %74

57:                                               ; preds = %52
  %58 = getelementptr inbounds i8, ptr %53, i64 11056
  %59 = load ptr, ptr %58, align 8
  %60 = getelementptr inbounds i8, ptr %59, i64 100872
  %61 = load i8, ptr %60, align 8
  %62 = trunc i8 %61 to i1
  br i1 %62, label %63, label %73

63:                                               ; preds = %57
  %64 = getelementptr inbounds i8, ptr %59, i64 100848
  %65 = getelementptr inbounds i8, ptr %0, i64 48
  %66 = getelementptr inbounds i8, ptr %53, i64 39585
  %67 = getelementptr inbounds i8, ptr %53, i64 39601
  %68 = getelementptr inbounds i8, ptr %53, i64 39660
  %69 = load i32, ptr %68, align 4
  %70 = getelementptr inbounds i8, ptr %53, i64 39627
  %71 = getelementptr inbounds i8, ptr %53, i64 39618
  %72 = tail call noundef zeroext i1 @_ZN9CryptData12SetCryptKeysEb12CRYPT_METHODP11SecPasswordPKhS4_jPhS5_(ptr noundef nonnull align 8 dereferenceable(2516) %65, i1 noundef zeroext false, i32 noundef 5, ptr noundef nonnull %64, ptr noundef nonnull %66, ptr noundef nonnull %67, i32 noundef %69, ptr noundef nonnull %70, ptr noundef nonnull %71)
  br label %74

73:                                               ; preds = %57
  store i8 0, ptr %3, align 8
  br label %82

74:                                               ; preds = %63, %52
  %75 = getelementptr inbounds i8, ptr %0, i64 2600
  %76 = getelementptr inbounds i8, ptr %0, i64 2624
  tail call void @llvm.memset.p0.i64(ptr noundef nonnull align 8 dereferenceable(24) %75, i8 0, i64 24, i1 false)
  %77 = load ptr, ptr %76, align 8
  %.not.i = icmp eq ptr %77, null
  br i1 %.not.i, label %_ZN5ArrayIhE5ResetEv.exit, label %78

78:                                               ; preds = %74
  tail call void @free(ptr noundef nonnull %77) #15
  store ptr null, ptr %76, align 8
  br label %_ZN5ArrayIhE5ResetEv.exit

_ZN5ArrayIhE5ResetEv.exit:                        ; preds = %74, %78
  %79 = getelementptr inbounds i8, ptr %0, i64 2632
  tail call void @llvm.memset.p0.i64(ptr noundef nonnull align 8 dereferenceable(16) %79, i8 0, i64 16, i1 false)
  %80 = getelementptr inbounds i8, ptr %0, i64 2656
  store i64 0, ptr %80, align 8
  %81 = tail call noundef i32 @_ZN9QuickOpen10ReadBufferEv(ptr noundef nonnull align 8 dereferenceable(2673) %0), !range !6
  br label %82

82:                                               ; preds = %_ZN5ArrayIhE5ResetEv.exit, %73, %32
  ret void
}